target datalayout = "e-m:e-p270:32:32-p271:32:32-p272:64:64-i64:64-i128:128-f80:128-n8:16:32:64-S128"
target triple = "x86_64-pc-linux-gnu"

%"class.boost::detail::system_signal_exception" = type { ptr, ptr }
%"class.boost::detail::signal_action" = type { i32, i8, %struct.sigaction, %struct.sigaction }
%struct.sigaction = type { %union.anon.8, %struct.__sigset_t, i32, ptr }
%union.anon.8 = type { ptr }
%struct.__sigset_t = type { [16 x i64] }
%"class.boost::system_error" = type { i64, ptr }
%struct.__jmp_buf_tag = type { [8 x i64], i32, %struct.__sigset_t }
%"class.boost::detail::signal_handler" = type { ptr, i64, %"class.boost::detail::signal_action", %"class.boost::detail::signal_action", %"class.boost::detail::signal_action", %"class.boost::detail::signal_action", %"class.boost::detail::signal_action", %"class.boost::detail::signal_action", %"class.boost::detail::signal_action", %"class.boost::detail::signal_action", [1 x %struct.__jmp_buf_tag], %"class.boost::detail::system_signal_exception" }

@.str.38 = private unnamed_addr constant [4 x i8] c"exp\00", align 1
@_ZN5boost6detail14signal_handler16s_active_handlerE = hidden global ptr null, align 8
@_ZN5boost12system_errorC1EPKc = hidden unnamed_addr alias void (ptr, ptr), ptr @_ZN5boost12system_errorC2EPKc

; Function Attrs: mustprogress nounwind uwtable
define linkonce_odr hidden noundef nonnull align 8 dereferenceable(200) ptr @_ZN5boost6detail14signal_handler11jump_bufferEv() #5 comdat align 2 {
  %1 = load ptr, ptr @_ZN5boost6detail14signal_handler16s_active_handlerE, align 8, !tbaa !3
  %2 = getelementptr inbounds nuw %"class.boost::detail::signal_handler", ptr %1, i32 0, i32 10
  ret ptr %2
}

; Function Attrs: mustprogress nounwind uwtable
define linkonce_odr hidden void @_ZN5boost6detail23system_signal_exceptionclEP9siginfo_tPv(ptr noundef nonnull align 8 dereferenceable(16) %0, ptr noundef %1, ptr noundef %2) #5 comdat align 2 {
  %4 = alloca ptr, align 8
  %5 = alloca ptr, align 8
  %6 = alloca ptr, align 8
  store ptr %0, ptr %4, align 8, !tbaa !3
  store ptr %1, ptr %5, align 8, !tbaa !3
  store ptr %2, ptr %6, align 8, !tbaa !3
  %7 = load ptr, ptr %4, align 8
  %8 = load ptr, ptr %5, align 8, !tbaa !3
  %9 = getelementptr inbounds nuw %"class.boost::detail::system_signal_exception", ptr %7, i32 0, i32 0
  store ptr %8, ptr %9, align 8, !tbaa !7
  %10 = load ptr, ptr %6, align 8, !tbaa !3
  %11 = getelementptr inbounds nuw %"class.boost::detail::system_signal_exception", ptr %7, i32 0, i32 1
  store ptr %10, ptr %11, align 8, !tbaa !37
  ret void
}

; Function Attrs: mustprogress nounwind uwtable
define linkonce_odr hidden noundef nonnull align 8 dereferenceable(16) ptr @_ZN5boost6detail14signal_handler7sys_sigEv() #5 comdat align 2 {
  %1 = load ptr, ptr @_ZN5boost6detail14signal_handler16s_active_handlerE, align 8, !tbaa !3
  %2 = getelementptr inbounds nuw %"class.boost::detail::signal_handler", ptr %1, i32 0, i32 11
  ret ptr %2
}

; Function Attrs: mustprogress uwtable
define internal void @_ZN5boost6detailL46boost_execution_monitor_jumping_signal_handlerEiP9siginfo_tPv(i32 noundef %0, ptr noundef %1, ptr noundef %2) #4 {
  %4 = alloca i32, align 4
  %5 = alloca ptr, align 8
  %6 = alloca ptr, align 8
  store i32 %0, ptr %4, align 4, !tbaa !21
  store ptr %1, ptr %5, align 8, !tbaa !3
  store ptr %2, ptr %6, align 8, !tbaa !3
  %7 = call noundef nonnull align 8 dereferenceable(16) ptr @_ZN5boost6detail14signal_handler7sys_sigEv()
  %8 = load ptr, ptr %5, align 8, !tbaa !3
  %9 = load ptr, ptr %6, align 8, !tbaa !3
  call void @_ZN5boost6detail23system_signal_exceptionclEP9siginfo_tPv(ptr noundef nonnull align 8 dereferenceable(16) %7, ptr noundef %8, ptr noundef %9)
  %10 = call noundef nonnull align 8 dereferenceable(200) ptr @_ZN5boost6detail14signal_handler11jump_bufferEv()
  %11 = getelementptr inbounds [1 x %struct.__jmp_buf_tag], ptr %10, i64 0, i64 0
  %12 = load i32, ptr %4, align 4, !tbaa !21
  call void @siglongjmp(ptr noundef %11, i32 noundef %12) #30
  unreachable
}

; Function Attrs: mustprogress uwtable
define internal void @_ZN5boost6detailL48boost_execution_monitor_attaching_signal_handlerEiP9siginfo_tPv(i32 noundef %0, ptr noundef %1, ptr noundef %2) #4 {
  %4 = alloca i32, align 4
  %5 = alloca ptr, align 8
  %6 = alloca ptr, align 8
  %7 = alloca %"class.boost::system_error", align 8
  store i32 %0, ptr %4, align 4, !tbaa !21
  store ptr %1, ptr %5, align 8, !tbaa !3
  store ptr %2, ptr %6, align 8, !tbaa !3
  %8 = call noundef zeroext i1 @_ZN5boost5debug15attach_debuggerEb(i1 noundef zeroext false)
  br i1 %8, label %13, label %9

9:                                                ; preds = %3
  %10 = load i32, ptr %4, align 4, !tbaa !21
  %11 = load ptr, ptr %5, align 8, !tbaa !3
  %12 = load ptr, ptr %6, align 8, !tbaa !3
  call void @_ZN5boost6detailL46boost_execution_monitor_jumping_signal_handlerEiP9siginfo_tPv(i32 noundef %10, ptr noundef %11, ptr noundef %12)
  br label %13

13:                                               ; preds = %9, %3
  %14 = load i32, ptr %4, align 4, !tbaa !21
  %15 = call ptr @signal(i32 noundef %14, ptr noundef null) #3
  %16 = icmp ne ptr %15, inttoptr (i64 -1 to ptr)
  br i1 %16, label %17, label %18

17:                                               ; preds = %13
  br label %19

18:                                               ; preds = %13
  call void @llvm.lifetime.start.p0(i64 16, ptr %7) #3
  call void @_ZN5boost12system_errorC1EPKc(ptr noundef nonnull align 8 dereferenceable(16) %7, ptr noundef @.str.38)
  call void @_ZN5boost9unit_test9ut_detail15throw_exceptionINS_12system_errorEEEvRKT_(ptr noundef nonnull align 8 dereferenceable(16) %7) #29
  unreachable

19:                                               ; preds = %17
  ret void
}