; Function Attrs: mustprogress uwtable
define internal void @_ZN5boost6detailL48boost_execution_monitor_attaching_signal_handlerEiP9siginfo_tPv(i32 noundef %0, ptr noundef %1, ptr noundef %2) #3 {
  %4 = alloca %"class.boost::system_error", align 8
  %5 = tail call noundef zeroext i1 @_ZN5boost5debug15attach_debuggerEb(i1 noundef zeroext false)
  br i1 %5, label %11, label %6

6:                                                ; preds = %3
  %7 = load ptr, ptr @_ZN5boost6detail14signal_handler16s_active_handlerE, align 8, !tbaa !32
  %8 = getelementptr inbounds nuw i8, ptr %7, i64 2712
  store ptr %1, ptr %8, align 8, !tbaa !3
  %9 = getelementptr inbounds nuw i8, ptr %7, i64 2720
  store ptr %2, ptr %9, align 8, !tbaa !33
  %10 = getelementptr inbounds nuw i8, ptr %7, i64 2512
  tail call void @siglongjmp(ptr noundef nonnull %10, i32 noundef %0) #44
  unreachable

11:                                               ; preds = %3
  %12 = tail call ptr @signal(i32 noundef %0, ptr noundef null) #41
  %.not = icmp eq ptr %12, inttoptr (i64 -1 to ptr)
  br i1 %.not, label %13, label %18

13:                                               ; preds = %11
  call void @llvm.lifetime.start.p0(i64 16, ptr nonnull %4) #41
  %14 = tail call ptr @__errno_location() #43
  %15 = load i32, ptr %14, align 4, !tbaa !24
  %16 = sext i32 %15 to i64
  store i64 %16, ptr %4, align 8, !tbaa !25
  %17 = getelementptr inbounds nuw i8, ptr %4, i64 8
  store ptr @.str.38, ptr %17, align 8, !tbaa !28
  call void @_ZN5boost9unit_test9ut_detail15throw_exceptionINS_12system_errorEEEvRKT_(ptr noundef nonnull align 8 dereferenceable(16) %4) #42
  unreachable

18:                                               ; preds = %11
  ret void
}